; Function Attrs: mustprogress nofree norecurse nosync nounwind willreturn memory(read, inaccessiblemem: none) uwtable
define hidden i32 @SDL_GetSystemTheme_REAL() local_unnamed_addr #4 {
  %1 = load ptr, ptr @_this, align 8
  %.not = icmp eq ptr %1, null
  br i1 %.not, label %5, label %2

2:                                                ; preds = %0
  %3 = getelementptr inbounds nuw i8, ptr %1, i64 912
  %4 = load i32, ptr %3, align 8
  br label %5

5:                                                ; preds = %0, %2
  %.0 = phi i32 [ %4, %2 ], [ 0, %0 ]
  ret i32 %.0
}